target datalayout = "e-m:e-p270:32:32-p271:32:32-p272:64:64-i64:64-i128:128-f80:128-n8:16:32:64-S128"
target triple = "x86_64-pc-linux-gnu"

%struct.avifIO = type { ptr, ptr, ptr, i64, i32, ptr }
%struct.avifIOMemoryReader = type { %struct.avifIO, %struct.avifROData }
%struct.avifROData = type { ptr, i64 }

; Function Attrs: nounwind uwtable
define hidden ptr @avifIOCreateMemoryReader(ptr noundef %0, i64 noundef %1) #0 {
  %3 = alloca ptr, align 8
  %4 = alloca ptr, align 8
  %5 = alloca i64, align 8
  %6 = alloca ptr, align 8
  store ptr %0, ptr %4, align 8
  store i64 %1, ptr %5, align 8
  %7 = call ptr @avifAlloc(i64 noundef 64)
  store ptr %7, ptr %6, align 8
  %8 = load ptr, ptr %6, align 8
  %9 = icmp eq ptr %8, null
  br i1 %9, label %10, label %11

10:                                               ; preds = %2
  store ptr null, ptr %3, align 8
  br label %35

11:                                               ; preds = %2
  %12 = load ptr, ptr %6, align 8
  call void @llvm.memset.p0.i64(ptr align 8 %12, i8 0, i64 64, i1 false)
  %13 = load ptr, ptr %6, align 8
  %14 = getelementptr inbounds nuw %struct.avifIOMemoryReader, ptr %13, i32 0, i32 0
  %15 = getelementptr inbounds nuw %struct.avifIO, ptr %14, i32 0, i32 0
  store ptr @avifIOMemoryReaderDestroy, ptr %15, align 8
  %16 = load ptr, ptr %6, align 8
  %17 = getelementptr inbounds nuw %struct.avifIOMemoryReader, ptr %16, i32 0, i32 0
  %18 = getelementptr inbounds nuw %struct.avifIO, ptr %17, i32 0, i32 1
  store ptr @avifIOMemoryReaderRead, ptr %18, align 8
  %19 = load i64, ptr %5, align 8
  %20 = load ptr, ptr %6, align 8
  %21 = getelementptr inbounds nuw %struct.avifIOMemoryReader, ptr %20, i32 0, i32 0
  %22 = getelementptr inbounds nuw %struct.avifIO, ptr %21, i32 0, i32 3
  store i64 %19, ptr %22, align 8
  %23 = load ptr, ptr %6, align 8
  %24 = getelementptr inbounds nuw %struct.avifIOMemoryReader, ptr %23, i32 0, i32 0
  %25 = getelementptr inbounds nuw %struct.avifIO, ptr %24, i32 0, i32 4
  store i32 1, ptr %25, align 8
  %26 = load ptr, ptr %4, align 8
  %27 = load ptr, ptr %6, align 8
  %28 = getelementptr inbounds nuw %struct.avifIOMemoryReader, ptr %27, i32 0, i32 1
  %29 = getelementptr inbounds nuw %struct.avifROData, ptr %28, i32 0, i32 0
  store ptr %26, ptr %29, align 8
  %30 = load i64, ptr %5, align 8
  %31 = load ptr, ptr %6, align 8
  %32 = getelementptr inbounds nuw %struct.avifIOMemoryReader, ptr %31, i32 0, i32 1
  %33 = getelementptr inbounds nuw %struct.avifROData, ptr %32, i32 0, i32 1
  store i64 %30, ptr %33, align 8
  %34 = load ptr, ptr %6, align 8
  store ptr %34, ptr %3, align 8
  br label %35

35:                                               ; preds = %11, %10
  %36 = load ptr, ptr %3, align 8
  ret ptr %36
}