; Function Attrs: nounwind uwtable
define hidden ptr @avifIOCreateMemoryReader(ptr noundef %0, i64 noundef %1) local_unnamed_addr #0 {
  %3 = tail call ptr @avifAlloc(i64 noundef 64) #7
  %4 = icmp eq ptr %3, null
  br i1 %4, label %12, label %5

5:                                                ; preds = %2
  %6 = getelementptr inbounds nuw i8, ptr %3, i64 16
  tail call void @llvm.memset.p0.i64(ptr noundef nonnull align 8 dereferenceable(64) %6, i8 0, i64 32, i1 false)
  store ptr @avifIOMemoryReaderDestroy, ptr %3, align 8
  %7 = getelementptr inbounds nuw i8, ptr %3, i64 8
  store ptr @avifIOMemoryReaderRead, ptr %7, align 8
  %8 = getelementptr inbounds nuw i8, ptr %3, i64 24
  store i64 %1, ptr %8, align 8
  %9 = getelementptr inbounds nuw i8, ptr %3, i64 32
  store i32 1, ptr %9, align 8
  %10 = getelementptr inbounds nuw i8, ptr %3, i64 48
  store ptr %0, ptr %10, align 8
  %11 = getelementptr inbounds nuw i8, ptr %3, i64 56
  store i64 %1, ptr %11, align 8
  br label %12

12:                                               ; preds = %2, %5
  ret ptr %3
}